	.section	__TEXT,__text,regular,pure_instructions
	.macosx_version_min 10, 11
	.file	1 "foo.c"
	.globl	_foo
	.align	4, 0x90
_foo:                                   ## @foo
Lfunc_begin0:
	.loc	1 37 0                  ## foo.c:37:0
	.cfi_startproc
## BB#0:
	pushq	%rbp
Ltmp0:
	.cfi_def_cfa_offset 16
Ltmp1:
	.cfi_offset %rbp, -16
	movq	%rsp, %rbp
Ltmp2:
	.cfi_def_cfa_register %rbp
	subq	$16, %rsp
	movl	%edi, -4(%rbp)
	.loc	1 43 23 prologue_end    ## foo.c:43:23
Ltmp3:
	movl	-4(%rbp), %edi
	.loc	1 43 9 is_stmt 0        ## foo.c:43:9
	movl	%edi, -8(%rbp)
	.loc	1 47 18 is_stmt 1       ## foo.c:47:18
	movl	_foo.foo_static(%rip), %edi
	.loc	1 47 29 is_stmt 0       ## foo.c:47:29
	addl	-8(%rbp), %edi
	.loc	1 47 16                 ## foo.c:47:16
	movl	%edi, _foo.foo_static(%rip)
	.loc	1 50 17 is_stmt 1       ## foo.c:50:17
	movl	_foo.foo_static(%rip), %edi
	.loc	1 50 12 is_stmt 0       ## foo.c:50:12
	callq	__bar
	.loc	1 50 5                  ## foo.c:50:5
	addq	$16, %rsp
	popq	%rbp
	retq
Ltmp4:
Lfunc_end0:
	.cfi_endproc

	.align	4, 0x90
__bar:                                  ## @_bar
Lfunc_begin1:
	.loc	1 55 0 is_stmt 1        ## foo.c:55:0
	.cfi_startproc
## BB#0:
	pushq	%rbp
Ltmp5:
	.cfi_def_cfa_offset 16
Ltmp6:
	.cfi_offset %rbp, -16
	movq	%rsp, %rbp
Ltmp7:
	.cfi_def_cfa_register %rbp
	movl	%edi, -4(%rbp)
	.loc	1 56 12 prologue_end    ## foo.c:56:12
Ltmp8:
	movl	-4(%rbp), %edi
	.loc	1 56 18 is_stmt 0       ## foo.c:56:18
	shll	$1, %edi
	.loc	1 56 5                  ## foo.c:56:5
	movl	%edi, %eax
	popq	%rbp
	retq
Ltmp9:
Lfunc_end1:
	.cfi_endproc

.zerofill __DATA,__bss,_foo.foo_static,4,2 ## @foo.foo_static